target datalayout = "e-m:e-p270:32:32-p271:32:32-p272:64:64-i64:64-i128:128-f80:128-n8:16:32:64-S128"
target triple = "x86_64-unknown-linux-gnu"

%"class.google::protobuf::internal::InternalMetadata" = type { i64 }
%"class.google::protobuf::internal::CachedSize" = type { i32 }
%"struct.google::protobuf::internal::ArenaStringPtr" = type { %"class.google::protobuf::internal::TaggedStringPtr" }
%"class.google::protobuf::internal::TaggedStringPtr" = type { ptr }
%"class.google::protobuf::Message" = type { %"class.google::protobuf::MessageLite" }
%"class.google::protobuf::MessageLite" = type { ptr, %"class.google::protobuf::internal::InternalMetadata" }
%"struct.google::protobuf::internal::InternalMetadata::Container" = type { %"struct.google::protobuf::internal::InternalMetadata::ContainerBase", %"class.google::protobuf::UnknownFieldSet" }
%"struct.google::protobuf::internal::InternalMetadata::ContainerBase" = type { ptr }
%"class.google::protobuf::UnknownFieldSet" = type { %"class.std::vector" }
%"class.std::vector" = type { %"struct.std::_Vector_base" }
%"struct.std::_Vector_base" = type { %"struct.std::_Vector_base<google::protobuf::UnknownField, std::allocator<google::protobuf::UnknownField>>::_Vector_impl" }
%"struct.std::_Vector_base<google::protobuf::UnknownField, std::allocator<google::protobuf::UnknownField>>::_Vector_impl" = type { %"struct.std::_Vector_base<google::protobuf::UnknownField, std::allocator<google::protobuf::UnknownField>>::_Vector_impl_data" }
%"struct.std::_Vector_base<google::protobuf::UnknownField, std::allocator<google::protobuf::UnknownField>>::_Vector_impl_data" = type { ptr, ptr, ptr }
%"class.google::protobuf::internal::InternalVisibility" = type { i8 }
%"class.google::protobuf::BytesValue" = type { %"class.google::protobuf::Message", %union.anon.13 }
%union.anon.13 = type { %"struct.google::protobuf::BytesValue::Impl_" }
%"struct.google::protobuf::BytesValue::Impl_" = type <{ %"struct.google::protobuf::internal::ArenaStringPtr", %"class.google::protobuf::internal::CachedSize", [4 x i8] }>

@_ZTVN6google8protobuf7MessageE = external unnamed_addr constant { [13 x ptr] }, align 8

; Function Attrs: mustprogress nounwind uwtable
define linkonce_odr hidden noundef i64 @_ZNK6google8protobuf8internal15TaggedStringPtr6as_intEv(ptr noundef nonnull align 8 dereferenceable(8) %this) #5 comdat align 2 {
entry:
  %this.addr = alloca ptr, align 8
  store ptr %this, ptr %this.addr, align 8
  %this1 = load ptr, ptr %this.addr, align 8
  %ptr_ = getelementptr inbounds %"class.google::protobuf::internal::TaggedStringPtr", ptr %this1, i32 0, i32 0
  %0 = load ptr, ptr %ptr_, align 8
  %1 = ptrtoint ptr %0 to i64
  ret i64 %1
}

; Function Attrs: mustprogress uwtable
define linkonce_odr hidden noundef zeroext i1 @_ZNK6google8protobuf8internal15TaggedStringPtr9IsDefaultEv(ptr noundef nonnull align 8 dereferenceable(8) %this) #4 comdat align 2 {
entry:
  %this.addr = alloca ptr, align 8
  store ptr %this, ptr %this.addr, align 8
  %this1 = load ptr, ptr %this.addr, align 8
  %call = call noundef i64 @_ZNK6google8protobuf8internal15TaggedStringPtr6as_intEv(ptr noundef nonnull align 8 dereferenceable(8) %this1)
  %and = and i64 %call, 3
  %cmp = icmp eq i64 %and, 0
  ret i1 %cmp
}

; Function Attrs: mustprogress nounwind uwtable
define linkonce_odr hidden void @_ZN6google8protobuf8internal16InternalMetadataC2EPNS0_5ArenaE(ptr noundef nonnull align 8 dereferenceable(8) %this, ptr noundef %arena) unnamed_addr #5 comdat align 2 {
entry:
  %this.addr = alloca ptr, align 8
  %arena.addr = alloca ptr, align 8
  store ptr %this, ptr %this.addr, align 8
  store ptr %arena, ptr %arena.addr, align 8
  %this1 = load ptr, ptr %this.addr, align 8
  %0 = load ptr, ptr %arena.addr, align 8
  %1 = ptrtoint ptr %0 to i64
  %ptr_ = getelementptr inbounds %"class.google::protobuf::internal::InternalMetadata", ptr %this1, i32 0, i32 0
  store i64 %1, ptr %ptr_, align 8
  ret void
}

; Function Attrs: mustprogress nounwind uwtable
define linkonce_odr hidden void @_ZN6google8protobuf11MessageLiteD2Ev(ptr noundef nonnull align 8 dereferenceable(16) %this) unnamed_addr #5 comdat align 2 {
entry:
  %this.addr = alloca ptr, align 8
  store ptr %this, ptr %this.addr, align 8
  ret void
}

; Function Attrs: mustprogress uwtable
define linkonce_odr hidden ptr @_ZNK6google8protobuf8internal15TaggedStringPtr4CopyEPNS0_5ArenaE(ptr noundef nonnull align 8 dereferenceable(8) %this, ptr noundef %arena) #4 comdat align 2 {
entry:
  %retval = alloca %"class.google::protobuf::internal::TaggedStringPtr", align 8
  %this.addr = alloca ptr, align 8
  %arena.addr = alloca ptr, align 8
  store ptr %this, ptr %this.addr, align 8
  store ptr %arena, ptr %arena.addr, align 8
  %this1 = load ptr, ptr %this.addr, align 8
  %call = call noundef zeroext i1 @_ZNK6google8protobuf8internal15TaggedStringPtr9IsDefaultEv(ptr noundef nonnull align 8 dereferenceable(8) %this1)
  br i1 %call, label %cond.true, label %cond.false

cond.true:                                        ; preds = %entry
  call void @llvm.memcpy.p0.p0.i64(ptr align 8 %retval, ptr align 8 %this1, i64 8, i1 false)
  br label %cond.end

cond.false:                                       ; preds = %entry
  %0 = load ptr, ptr %arena.addr, align 8
  %call2 = call ptr @_ZNK6google8protobuf8internal15TaggedStringPtr9ForceCopyEPNS0_5ArenaE(ptr noundef nonnull align 8 dereferenceable(8) %this1, ptr noundef %0)
  %coerce.dive = getelementptr inbounds %"class.google::protobuf::internal::TaggedStringPtr", ptr %retval, i32 0, i32 0
  store ptr %call2, ptr %coerce.dive, align 8
  br label %cond.end

cond.end:                                         ; preds = %cond.false, %cond.true
  %coerce.dive3 = getelementptr inbounds %"class.google::protobuf::internal::TaggedStringPtr", ptr %retval, i32 0, i32 0
  %1 = load ptr, ptr %coerce.dive3, align 8
  ret ptr %1
}

; Function Attrs: mustprogress nounwind uwtable
define linkonce_odr hidden void @_ZN6google8protobuf8internal18InternalVisibilityC2Ev(ptr noundef nonnull align 1 dereferenceable(1) %this) unnamed_addr #5 comdat align 2 {
entry:
  %this.addr = alloca ptr, align 8
  store ptr %this, ptr %this.addr, align 8
  ret void
}

; Function Attrs: mustprogress uwtable
define linkonce_odr hidden void @_ZN6google8protobuf11MessageLiteC2EPNS0_5ArenaE(ptr noundef nonnull align 8 dereferenceable(16) %this, ptr noundef %arena) unnamed_addr #4 comdat align 2 {
entry:
  %this.addr = alloca ptr, align 8
  %arena.addr = alloca ptr, align 8
  store ptr %this, ptr %this.addr, align 8
  store ptr %arena, ptr %arena.addr, align 8
  %this1 = load ptr, ptr %this.addr, align 8
  store ptr getelementptr inbounds ({ [12 x ptr] }, ptr @_ZTVN6google8protobuf11MessageLiteE, i32 0, i32 0, i32 2), ptr %this1, align 8
  %_internal_metadata_ = getelementptr inbounds %"class.google::protobuf::MessageLite", ptr %this1, i32 0, i32 1
  %0 = load ptr, ptr %arena.addr, align 8
  call void @_ZN6google8protobuf8internal16InternalMetadataC2EPNS0_5ArenaE(ptr noundef nonnull align 8 dereferenceable(8) %_internal_metadata_, ptr noundef %0)
  ret void
}

; Function Attrs: mustprogress nounwind uwtable
define linkonce_odr hidden void @_ZN6google8protobuf7MessageD2Ev(ptr noundef nonnull align 8 dereferenceable(16) %this) unnamed_addr #5 comdat align 2 {
entry:
  %this.addr = alloca ptr, align 8
  store ptr %this, ptr %this.addr, align 8
  %this1 = load ptr, ptr %this.addr, align 8
  call void @_ZN6google8protobuf11MessageLiteD2Ev(ptr noundef nonnull align 8 dereferenceable(16) %this1) #3
  ret void
}

; Function Attrs: mustprogress nounwind uwtable
define linkonce_odr hidden void @_ZN6google8protobuf8internal10CachedSizeC2Ei(ptr noundef nonnull align 4 dereferenceable(4) %this, i32 noundef %desired) unnamed_addr #5 comdat align 2 {
entry:
  %this.addr = alloca ptr, align 8
  %desired.addr = alloca i32, align 4
  store ptr %this, ptr %this.addr, align 8
  store i32 %desired, ptr %desired.addr, align 4
  %this1 = load ptr, ptr %this.addr, align 8
  %atom_ = getelementptr inbounds %"class.google::protobuf::internal::CachedSize", ptr %this1, i32 0, i32 0
  %0 = load i32, ptr %desired.addr, align 4
  store i32 %0, ptr %atom_, align 4
  ret void
}

; Function Attrs: mustprogress uwtable
define linkonce_odr hidden void @_ZN6google8protobuf8internal14ArenaStringPtrC2EPNS0_5ArenaERKS2_(ptr noundef nonnull align 8 dereferenceable(8) %this, ptr noundef %arena, ptr noundef nonnull align 8 dereferenceable(8) %rhs) unnamed_addr #4 comdat align 2 {
entry:
  %this.addr = alloca ptr, align 8
  %arena.addr = alloca ptr, align 8
  %rhs.addr = alloca ptr, align 8
  store ptr %this, ptr %this.addr, align 8
  store ptr %arena, ptr %arena.addr, align 8
  store ptr %rhs, ptr %rhs.addr, align 8
  %this1 = load ptr, ptr %this.addr, align 8
  %tagged_ptr_ = getelementptr inbounds %"struct.google::protobuf::internal::ArenaStringPtr", ptr %this1, i32 0, i32 0
  %0 = load ptr, ptr %rhs.addr, align 8
  %tagged_ptr_2 = getelementptr inbounds %"struct.google::protobuf::internal::ArenaStringPtr", ptr %0, i32 0, i32 0
  %1 = load ptr, ptr %arena.addr, align 8
  %call = call ptr @_ZNK6google8protobuf8internal15TaggedStringPtr4CopyEPNS0_5ArenaE(ptr noundef nonnull align 8 dereferenceable(8) %tagged_ptr_2, ptr noundef %1)
  %coerce.dive = getelementptr inbounds %"class.google::protobuf::internal::TaggedStringPtr", ptr %tagged_ptr_, i32 0, i32 0
  store ptr %call, ptr %coerce.dive, align 8
  ret void
}

; Function Attrs: mustprogress uwtable
define linkonce_odr hidden void @_ZN6google8protobuf11MessageLite19internal_visibilityEv() #4 comdat align 2 {
entry:
  %retval = alloca %"class.google::protobuf::internal::InternalVisibility", align 1
  call void @_ZN6google8protobuf8internal18InternalVisibilityC2Ev(ptr noundef nonnull align 1 dereferenceable(1) %retval)
  ret void
}

; Function Attrs: mustprogress nounwind uwtable
define linkonce_odr hidden noundef ptr @_ZNK6google8protobuf8internal16InternalMetadata8PtrValueINS2_9ContainerINS0_15UnknownFieldSetEEEEEPT_v(ptr noundef nonnull align 8 dereferenceable(8) %this) #5 comdat align 2 {
entry:
  %this.addr = alloca ptr, align 8
  store ptr %this, ptr %this.addr, align 8
  %this1 = load ptr, ptr %this.addr, align 8
  %ptr_ = getelementptr inbounds %"class.google::protobuf::internal::InternalMetadata", ptr %this1, i32 0, i32 0
  %0 = load i64, ptr %ptr_, align 8
  %and = and i64 %0, -2
  %1 = inttoptr i64 %and to ptr
  ret ptr %1
}

; Function Attrs: mustprogress uwtable
define linkonce_odr hidden void @_ZN6google8protobuf7MessageC2EPNS0_5ArenaE(ptr noundef nonnull align 8 dereferenceable(16) %this, ptr noundef %arena) unnamed_addr #4 comdat align 2 {
entry:
  %this.addr = alloca ptr, align 8
  %arena.addr = alloca ptr, align 8
  store ptr %this, ptr %this.addr, align 8
  store ptr %arena, ptr %arena.addr, align 8
  %this1 = load ptr, ptr %this.addr, align 8
  %0 = load ptr, ptr %arena.addr, align 8
  call void @_ZN6google8protobuf11MessageLiteC2EPNS0_5ArenaE(ptr noundef nonnull align 8 dereferenceable(16) %this1, ptr noundef %0)
  store ptr getelementptr inbounds ({ [13 x ptr] }, ptr @_ZTVN6google8protobuf7MessageE, i32 0, i32 0, i32 2), ptr %this1, align 8
  ret void
}

; Function Attrs: mustprogress uwtable
define void @_ZN6google8protobuf10BytesValueC2EPNS0_5ArenaERKS1_(ptr noundef nonnull align 8 dereferenceable(32) %this, ptr noundef %arena, ptr noundef nonnull align 8 dereferenceable(32) %from) unnamed_addr #4 align 2 personality ptr @__gxx_personality_v0 {
entry:
  %this.addr.i12 = alloca ptr, align 8
  %this.addr.i10 = alloca ptr, align 8
  %this.addr.i7 = alloca ptr, align 8
  %arena.addr.i = alloca ptr, align 8
  %from.addr.i = alloca ptr, align 8
  %this.addr.i.i.i = alloca ptr, align 8
  %retval.i.i = alloca ptr, align 8
  %this.addr.i3.i = alloca ptr, align 8
  %default_instance.addr.i.i = alloca ptr, align 8
  %this.addr.i.i = alloca ptr, align 8
  %this.addr.i = alloca ptr, align 8
  %other.addr.i = alloca ptr, align 8
  %this.addr = alloca ptr, align 8
  %arena.addr = alloca ptr, align 8
  %from.addr = alloca ptr, align 8
  %_this = alloca ptr, align 8
  %exn.slot = alloca ptr, align 8
  %ehselector.slot = alloca i32, align 4
  store ptr %this, ptr %this.addr, align 8
  store ptr %arena, ptr %arena.addr, align 8
  store ptr %from, ptr %from.addr, align 8
  %this1 = load ptr, ptr %this.addr, align 8
  %0 = load ptr, ptr %arena.addr, align 8
  call void @_ZN6google8protobuf7MessageC2EPNS0_5ArenaE(ptr noundef nonnull align 8 dereferenceable(16) %this1, ptr noundef %0)
  store ptr getelementptr inbounds ({ [13 x ptr] }, ptr @_ZTVN6google8protobuf10BytesValueE, i32 0, i32 0, i32 2), ptr %this1, align 8
  store ptr %this1, ptr %_this, align 8
  %_internal_metadata_ = getelementptr inbounds %"class.google::protobuf::MessageLite", ptr %this1, i32 0, i32 1
  %1 = load ptr, ptr %from.addr, align 8
  %_internal_metadata_2 = getelementptr inbounds %"class.google::protobuf::MessageLite", ptr %1, i32 0, i32 1
  store ptr %_internal_metadata_, ptr %this.addr.i, align 8
  store ptr %_internal_metadata_2, ptr %other.addr.i, align 8
  %this1.i = load ptr, ptr %this.addr.i, align 8
  %2 = load ptr, ptr %other.addr.i, align 8
  store ptr %2, ptr %this.addr.i.i, align 8
  %this1.i.i = load ptr, ptr %this.addr.i.i, align 8
  store ptr %this1.i.i, ptr %this.addr.i12, align 8
  %this1.i13 = load ptr, ptr %this.addr.i12, align 8
  %3 = load i64, ptr %this1.i13, align 8
  %and.i14 = and i64 %3, 1
  %tobool.i15 = icmp ne i64 %and.i14, 0
  br i1 %tobool.i15, label %if.then.i, label %_ZN6google8protobuf8internal16InternalMetadata9MergeFromINS0_15UnknownFieldSetEEEvRKS2_.exit

if.then.i:                                        ; preds = %entry
  %4 = load ptr, ptr %other.addr.i, align 8
  store ptr %4, ptr %this.addr.i3.i, align 8
  store ptr null, ptr %default_instance.addr.i.i, align 8
  %this1.i4.i = load ptr, ptr %this.addr.i3.i, align 8
  store ptr %this1.i4.i, ptr %this.addr.i.i.i, align 8
  %this1.i.i.i = load ptr, ptr %this.addr.i.i.i, align 8
  store ptr %this1.i.i.i, ptr %this.addr.i10, align 8
  %this1.i11 = load ptr, ptr %this.addr.i10, align 8
  %5 = load i64, ptr %this1.i11, align 8
  %and.i = and i64 %5, 1
  %tobool.i = icmp ne i64 %and.i, 0
  br i1 %tobool.i, label %if.then.i.i, label %if.else.i.i

if.then.i.i:                                      ; preds = %if.then.i
  %call2.i.i = call noundef ptr @_ZNK6google8protobuf8internal16InternalMetadata8PtrValueINS2_9ContainerINS0_15UnknownFieldSetEEEEEPT_v(ptr noundef nonnull align 8 dereferenceable(8) %this1.i4.i)
  %unknown_fields.i.i = getelementptr inbounds %"struct.google::protobuf::internal::InternalMetadata::Container", ptr %call2.i.i, i32 0, i32 1
  store ptr %unknown_fields.i.i, ptr %retval.i.i, align 8
  br label %_ZNK6google8protobuf8internal16InternalMetadata14unknown_fieldsINS0_15UnknownFieldSetEEERKT_PFS7_vE.exit.i

if.else.i.i:                                      ; preds = %if.then.i
  %6 = load ptr, ptr %default_instance.addr.i.i, align 8
  %call3.i.i6 = invoke noundef nonnull align 8 dereferenceable(24) ptr %6()
          to label %call3.i.i.noexc unwind label %lpad

call3.i.i.noexc:                                  ; preds = %if.else.i.i
  store ptr %call3.i.i6, ptr %retval.i.i, align 8
  br label %_ZNK6google8protobuf8internal16InternalMetadata14unknown_fieldsINS0_15UnknownFieldSetEEERKT_PFS7_vE.exit.i

_ZNK6google8protobuf8internal16InternalMetadata14unknown_fieldsINS0_15UnknownFieldSetEEERKT_PFS7_vE.exit.i: ; preds = %call3.i.i.noexc, %if.then.i.i
  %7 = load ptr, ptr %retval.i.i, align 8
  invoke void @_ZN6google8protobuf8internal16InternalMetadata11DoMergeFromINS0_15UnknownFieldSetEEEvRKT_(ptr noundef nonnull align 8 dereferenceable(8) %this1.i, ptr noundef nonnull align 8 dereferenceable(24) %7)
          to label %.noexc unwind label %lpad

.noexc:                                           ; preds = %_ZNK6google8protobuf8internal16InternalMetadata14unknown_fieldsINS0_15UnknownFieldSetEEERKT_PFS7_vE.exit.i
  br label %_ZN6google8protobuf8internal16InternalMetadata9MergeFromINS0_15UnknownFieldSetEEEvRKS2_.exit

_ZN6google8protobuf8internal16InternalMetadata9MergeFromINS0_15UnknownFieldSetEEEvRKS2_.exit: ; preds = %.noexc, %entry
  br label %invoke.cont

invoke.cont:                                      ; preds = %_ZN6google8protobuf8internal16InternalMetadata9MergeFromINS0_15UnknownFieldSetEEEvRKS2_.exit
  %8 = getelementptr inbounds %"class.google::protobuf::BytesValue", ptr %this1, i32 0, i32 1
  invoke void @_ZN6google8protobuf11MessageLite19internal_visibilityEv()
          to label %invoke.cont3 unwind label %lpad

invoke.cont3:                                     ; preds = %invoke.cont
  %9 = load ptr, ptr %arena.addr, align 8
  %10 = load ptr, ptr %from.addr, align 8
  %11 = getelementptr inbounds %"class.google::protobuf::BytesValue", ptr %10, i32 0, i32 1
  store ptr %8, ptr %this.addr.i7, align 8
  store ptr %9, ptr %arena.addr.i, align 8
  store ptr %11, ptr %from.addr.i, align 8
  %this1.i8 = load ptr, ptr %this.addr.i7, align 8
  %12 = load ptr, ptr %arena.addr.i, align 8
  %13 = load ptr, ptr %from.addr.i, align 8
  invoke void @_ZN6google8protobuf8internal14ArenaStringPtrC2EPNS0_5ArenaERKS2_(ptr noundef nonnull align 8 dereferenceable(8) %this1.i8, ptr noundef %12, ptr noundef nonnull align 8 dereferenceable(8) %13)
          to label %_ZN6google8protobuf10BytesValue5Impl_C2ENS0_8internal18InternalVisibilityEPNS0_5ArenaERKS2_.exit unwind label %lpad

_ZN6google8protobuf10BytesValue5Impl_C2ENS0_8internal18InternalVisibilityEPNS0_5ArenaERKS2_.exit: ; preds = %invoke.cont3
  %_cached_size_.i = getelementptr inbounds %"struct.google::protobuf::BytesValue::Impl_", ptr %this1.i8, i32 0, i32 1
  call void @_ZN6google8protobuf8internal10CachedSizeC2Ei(ptr noundef nonnull align 4 dereferenceable(4) %_cached_size_.i, i32 noundef 0) #3
  br label %invoke.cont4

invoke.cont4:                                     ; preds = %_ZN6google8protobuf10BytesValue5Impl_C2ENS0_8internal18InternalVisibilityEPNS0_5ArenaERKS2_.exit
  ret void

lpad:                                             ; preds = %invoke.cont3, %invoke.cont, %_ZNK6google8protobuf8internal16InternalMetadata14unknown_fieldsINS0_15UnknownFieldSetEEERKT_PFS7_vE.exit.i, %if.else.i.i
  %14 = landingpad { ptr, i32 }
          cleanup
  %15 = extractvalue { ptr, i32 } %14, 0
  store ptr %15, ptr %exn.slot, align 8
  %16 = extractvalue { ptr, i32 } %14, 1
  store i32 %16, ptr %ehselector.slot, align 4
  call void @_ZN6google8protobuf7MessageD2Ev(ptr noundef nonnull align 8 dereferenceable(16) %this1) #3
  br label %eh.resume

eh.resume:                                        ; preds = %lpad
  %exn = load ptr, ptr %exn.slot, align 8
  %sel = load i32, ptr %ehselector.slot, align 4
  %lpad.val = insertvalue { ptr, i32 } poison, ptr %exn, 0
  %lpad.val5 = insertvalue { ptr, i32 } %lpad.val, i32 %sel, 1
  resume { ptr, i32 } %lpad.val5
}